; Function Attrs: mustprogress uwtable
define internal noundef double @_ZN12_GLOBAL__N_112is_ilp_probeclERK4goal(ptr nocapture nonnull readnone align 8 %this, ptr noundef nonnull align 8 dereferenceable(124) %g) unnamed_addr #3 align 2 {
entry:
  %p.i.i = alloca %"struct.(anonymous namespace)::is_non_qflira_functor", align 8
  call void @llvm.lifetime.start.p0(i64 32, ptr nonnull %p.i.i)
  %0 = load ptr, ptr %g, align 8
  store ptr %0, ptr %p.i.i, align 8
  %u.i.i.i = getelementptr inbounds i8, ptr %p.i.i, i64 8
  call void @_ZN10arith_utilC1ER11ast_manager(ptr noundef nonnull align 8 dereferenceable(16) %u.i.i.i, ptr noundef nonnull align 8 dereferenceable(976) %0)
  %m_int.i.i.i = getelementptr inbounds i8, ptr %p.i.i, i64 24
  store i8 1, ptr %m_int.i.i.i, align 8
  %m_real.i.i.i = getelementptr inbounds i8, ptr %p.i.i, i64 25
  store i8 0, ptr %m_real.i.i.i, align 1
  %call1.i.i = call fastcc noundef zeroext i1 @_Z4testIN12_GLOBAL__N_121is_non_qflira_functorEEbRK4goalRT_(ptr noundef nonnull align 8 dereferenceable(124) %g, ptr noundef nonnull align 8 dereferenceable(26) %p.i.i)
  call void @llvm.lifetime.end.p0(i64 32, ptr nonnull %p.i.i)
  br i1 %call1.i.i, label %_ZN12_GLOBAL__N_16is_ilpERK4goal.exit.thread, label %if.end.i

if.end.i:                                         ; preds = %entry
  %call1.i = call noundef zeroext i1 @_Z12has_term_iteRK4goal(ptr noundef nonnull align 8 dereferenceable(124) %g)
  br i1 %call1.i, label %_ZN12_GLOBAL__N_16is_ilpERK4goal.exit.thread, label %_ZN12_GLOBAL__N_16is_ilpERK4goal.exit

_ZN12_GLOBAL__N_16is_ilpERK4goal.exit:            ; preds = %if.end.i
  %call4.i = call fastcc noundef zeroext i1 @_ZN12_GLOBAL__N_15is_lpERK4goal(ptr noundef nonnull align 8 dereferenceable(124) %g)
  br i1 %call4.i, label %1, label %_ZN12_GLOBAL__N_16is_ilpERK4goal.exit.thread

1:                                                ; preds = %_ZN12_GLOBAL__N_16is_ilpERK4goal.exit
  br label %_ZN12_GLOBAL__N_16is_ilpERK4goal.exit.thread

_ZN12_GLOBAL__N_16is_ilpERK4goal.exit.thread:     ; preds = %if.end.i, %entry, %_ZN12_GLOBAL__N_16is_ilpERK4goal.exit, %1
  %2 = phi double [ 1.000000e+00, %1 ], [ 0.000000e+00, %_ZN12_GLOBAL__N_16is_ilpERK4goal.exit ], [ 0.000000e+00, %entry ], [ 0.000000e+00, %if.end.i ]
  ret double %2
}